
../test/test.om:     file format elf32-littleriscv


Disassembly of section .rom:

00000000 <.rom>:
   0:	00020137          	lui	sp,0x20
   4:	7fd000ef          	jal	ra,1000 <main>
   8:	0ff00513          	li	a0,255
   c:	000306b7          	lui	a3,0x30
  10:	00a68223          	sb	a0,4(a3) # 30004 <__heap_start+0x2d004>
  14:	ff9ff06f          	j	c <main-0xff4>

Disassembly of section .text.startup:

00001000 <main>:
    1000:	ff010113          	addi	sp,sp,-16 # 1fff0 <__heap_start+0x1cff0>
    1004:	000307b7          	lui	a5,0x30
    1008:	06100693          	li	a3,97
    100c:	00812623          	sw	s0,12(sp)
    1010:	00912423          	sw	s1,8(sp)
    1014:	06200713          	li	a4,98
    1018:	00d78023          	sb	a3,0(a5) # 30000 <__heap_start+0x2d000>
    101c:	06300493          	li	s1,99
    1020:	00e78023          	sb	a4,0(a5)
    1024:	06400413          	li	s0,100
    1028:	00978023          	sb	s1,0(a5)
    102c:	06500393          	li	t2,101
    1030:	00878023          	sb	s0,0(a5)
    1034:	06600293          	li	t0,102
    1038:	00778023          	sb	t2,0(a5)
    103c:	06700f93          	li	t6,103
    1040:	00578023          	sb	t0,0(a5)
    1044:	06800f13          	li	t5,104
    1048:	01f78023          	sb	t6,0(a5)
    104c:	06900e93          	li	t4,105
    1050:	01e78023          	sb	t5,0(a5)
    1054:	06a00e13          	li	t3,106
    1058:	01d78023          	sb	t4,0(a5)
    105c:	06b00313          	li	t1,107
    1060:	01c78023          	sb	t3,0(a5)
    1064:	06c00893          	li	a7,108
    1068:	00678023          	sb	t1,0(a5)
    106c:	06d00813          	li	a6,109
    1070:	01178023          	sb	a7,0(a5)
    1074:	06e00513          	li	a0,110
    1078:	01078023          	sb	a6,0(a5)
    107c:	06f00593          	li	a1,111
    1080:	00a78023          	sb	a0,0(a5)
    1084:	07000613          	li	a2,112
    1088:	00b78023          	sb	a1,0(a5)
    108c:	00c78023          	sb	a2,0(a5)
    1090:	00d78023          	sb	a3,0(a5)
    1094:	00e78023          	sb	a4,0(a5)
    1098:	00978023          	sb	s1,0(a5)
    109c:	00878023          	sb	s0,0(a5)
    10a0:	00778023          	sb	t2,0(a5)
    10a4:	00578023          	sb	t0,0(a5)
    10a8:	01f78023          	sb	t6,0(a5)
    10ac:	01e78023          	sb	t5,0(a5)
    10b0:	01d78023          	sb	t4,0(a5)
    10b4:	01c78023          	sb	t3,0(a5)
    10b8:	00678023          	sb	t1,0(a5)
    10bc:	01178023          	sb	a7,0(a5)
    10c0:	01078023          	sb	a6,0(a5)
    10c4:	00a78023          	sb	a0,0(a5)
    10c8:	00b78023          	sb	a1,0(a5)
    10cc:	00c78023          	sb	a2,0(a5)
    10d0:	00d78023          	sb	a3,0(a5)
    10d4:	00e78023          	sb	a4,0(a5)
    10d8:	00978023          	sb	s1,0(a5)
    10dc:	00878023          	sb	s0,0(a5)
    10e0:	00778023          	sb	t2,0(a5)
    10e4:	00578023          	sb	t0,0(a5)
    10e8:	01f78023          	sb	t6,0(a5)
    10ec:	01e78023          	sb	t5,0(a5)
    10f0:	01d78023          	sb	t4,0(a5)
    10f4:	01c78023          	sb	t3,0(a5)
    10f8:	00678023          	sb	t1,0(a5)
    10fc:	01178023          	sb	a7,0(a5)
    1100:	01078023          	sb	a6,0(a5)
    1104:	00a78023          	sb	a0,0(a5)
    1108:	00b78023          	sb	a1,0(a5)
    110c:	00c78023          	sb	a2,0(a5)
    1110:	00d78023          	sb	a3,0(a5)
    1114:	00e78023          	sb	a4,0(a5)
    1118:	00978023          	sb	s1,0(a5)
    111c:	00878023          	sb	s0,0(a5)
    1120:	00778023          	sb	t2,0(a5)
    1124:	00578023          	sb	t0,0(a5)
    1128:	01f78023          	sb	t6,0(a5)
    112c:	01e78023          	sb	t5,0(a5)
    1130:	01d78023          	sb	t4,0(a5)
    1134:	01c78023          	sb	t3,0(a5)
    1138:	00678023          	sb	t1,0(a5)
    113c:	01178023          	sb	a7,0(a5)
    1140:	01078023          	sb	a6,0(a5)
    1144:	00a78023          	sb	a0,0(a5)
    1148:	00b78023          	sb	a1,0(a5)
    114c:	00c78023          	sb	a2,0(a5)
    1150:	00d78023          	sb	a3,0(a5)
    1154:	00e78023          	sb	a4,0(a5)
    1158:	00978023          	sb	s1,0(a5)
    115c:	00878023          	sb	s0,0(a5)
    1160:	00778023          	sb	t2,0(a5)
    1164:	00578023          	sb	t0,0(a5)
    1168:	01f78023          	sb	t6,0(a5)
    116c:	01e78023          	sb	t5,0(a5)
    1170:	01d78023          	sb	t4,0(a5)
    1174:	01c78023          	sb	t3,0(a5)
    1178:	00678023          	sb	t1,0(a5)
    117c:	01178023          	sb	a7,0(a5)
    1180:	01078023          	sb	a6,0(a5)
    1184:	00a78023          	sb	a0,0(a5)
    1188:	00b78023          	sb	a1,0(a5)
    118c:	00c78023          	sb	a2,0(a5)
    1190:	00d78023          	sb	a3,0(a5)
    1194:	00e78023          	sb	a4,0(a5)
    1198:	00978023          	sb	s1,0(a5)
    119c:	00878023          	sb	s0,0(a5)
    11a0:	00778023          	sb	t2,0(a5)
    11a4:	00578023          	sb	t0,0(a5)
    11a8:	01f78023          	sb	t6,0(a5)
    11ac:	01e78023          	sb	t5,0(a5)
    11b0:	01d78023          	sb	t4,0(a5)
    11b4:	01c78023          	sb	t3,0(a5)
    11b8:	00678023          	sb	t1,0(a5)
    11bc:	01178023          	sb	a7,0(a5)
    11c0:	01078023          	sb	a6,0(a5)
    11c4:	00a78023          	sb	a0,0(a5)
    11c8:	00b78023          	sb	a1,0(a5)
    11cc:	00c78023          	sb	a2,0(a5)
    11d0:	00d78023          	sb	a3,0(a5)
    11d4:	00e78023          	sb	a4,0(a5)
    11d8:	00978023          	sb	s1,0(a5)
    11dc:	00878023          	sb	s0,0(a5)
    11e0:	00778023          	sb	t2,0(a5)
    11e4:	00578023          	sb	t0,0(a5)
    11e8:	01f78023          	sb	t6,0(a5)
    11ec:	01e78023          	sb	t5,0(a5)
    11f0:	01d78023          	sb	t4,0(a5)
    11f4:	01c78023          	sb	t3,0(a5)
    11f8:	00678023          	sb	t1,0(a5)
    11fc:	01178023          	sb	a7,0(a5)
    1200:	01078023          	sb	a6,0(a5)
    1204:	00a78023          	sb	a0,0(a5)
    1208:	00b78023          	sb	a1,0(a5)
    120c:	00c78023          	sb	a2,0(a5)
    1210:	00d78023          	sb	a3,0(a5)
    1214:	00e78023          	sb	a4,0(a5)
    1218:	00978023          	sb	s1,0(a5)
    121c:	00878023          	sb	s0,0(a5)
    1220:	00778023          	sb	t2,0(a5)
    1224:	00578023          	sb	t0,0(a5)
    1228:	01f78023          	sb	t6,0(a5)
    122c:	01e78023          	sb	t5,0(a5)
    1230:	01d78023          	sb	t4,0(a5)
    1234:	01c78023          	sb	t3,0(a5)
    1238:	00678023          	sb	t1,0(a5)
    123c:	01178023          	sb	a7,0(a5)
    1240:	01078023          	sb	a6,0(a5)
    1244:	00a78023          	sb	a0,0(a5)
    1248:	00b78023          	sb	a1,0(a5)
    124c:	00c78023          	sb	a2,0(a5)
    1250:	00d78023          	sb	a3,0(a5)
    1254:	00e78023          	sb	a4,0(a5)
    1258:	00978023          	sb	s1,0(a5)
    125c:	00878023          	sb	s0,0(a5)
    1260:	00778023          	sb	t2,0(a5)
    1264:	00578023          	sb	t0,0(a5)
    1268:	01f78023          	sb	t6,0(a5)
    126c:	01e78023          	sb	t5,0(a5)
    1270:	01d78023          	sb	t4,0(a5)
    1274:	01c78023          	sb	t3,0(a5)
    1278:	00678023          	sb	t1,0(a5)
    127c:	01178023          	sb	a7,0(a5)
    1280:	01078023          	sb	a6,0(a5)
    1284:	00a78023          	sb	a0,0(a5)
    1288:	00b78023          	sb	a1,0(a5)
    128c:	00c78023          	sb	a2,0(a5)
    1290:	00d78023          	sb	a3,0(a5)
    1294:	00e78023          	sb	a4,0(a5)
    1298:	00978023          	sb	s1,0(a5)
    129c:	00878023          	sb	s0,0(a5)
    12a0:	00778023          	sb	t2,0(a5)
    12a4:	00578023          	sb	t0,0(a5)
    12a8:	01f78023          	sb	t6,0(a5)
    12ac:	01e78023          	sb	t5,0(a5)
    12b0:	01d78023          	sb	t4,0(a5)
    12b4:	01c78023          	sb	t3,0(a5)
    12b8:	00678023          	sb	t1,0(a5)
    12bc:	01178023          	sb	a7,0(a5)
    12c0:	01078023          	sb	a6,0(a5)
    12c4:	00a78023          	sb	a0,0(a5)
    12c8:	00b78023          	sb	a1,0(a5)
    12cc:	00c78023          	sb	a2,0(a5)
    12d0:	00d78023          	sb	a3,0(a5)
    12d4:	00e78023          	sb	a4,0(a5)
    12d8:	00978023          	sb	s1,0(a5)
    12dc:	00878023          	sb	s0,0(a5)
    12e0:	00778023          	sb	t2,0(a5)
    12e4:	00578023          	sb	t0,0(a5)
    12e8:	01f78023          	sb	t6,0(a5)
    12ec:	01e78023          	sb	t5,0(a5)
    12f0:	01d78023          	sb	t4,0(a5)
    12f4:	01c78023          	sb	t3,0(a5)
    12f8:	00678023          	sb	t1,0(a5)
    12fc:	01178023          	sb	a7,0(a5)
    1300:	01078023          	sb	a6,0(a5)
    1304:	00a78023          	sb	a0,0(a5)
    1308:	00b78023          	sb	a1,0(a5)
    130c:	00c78023          	sb	a2,0(a5)
    1310:	00d78023          	sb	a3,0(a5)
    1314:	00e78023          	sb	a4,0(a5)
    1318:	00978023          	sb	s1,0(a5)
    131c:	00878023          	sb	s0,0(a5)
    1320:	00778023          	sb	t2,0(a5)
    1324:	00578023          	sb	t0,0(a5)
    1328:	01f78023          	sb	t6,0(a5)
    132c:	01e78023          	sb	t5,0(a5)
    1330:	01d78023          	sb	t4,0(a5)
    1334:	01c78023          	sb	t3,0(a5)
    1338:	00678023          	sb	t1,0(a5)
    133c:	01178023          	sb	a7,0(a5)
    1340:	01078023          	sb	a6,0(a5)
    1344:	00a78023          	sb	a0,0(a5)
    1348:	00b78023          	sb	a1,0(a5)
    134c:	00c78023          	sb	a2,0(a5)
    1350:	00d78023          	sb	a3,0(a5)
    1354:	00e78023          	sb	a4,0(a5)
    1358:	00978023          	sb	s1,0(a5)
    135c:	00878023          	sb	s0,0(a5)
    1360:	00778023          	sb	t2,0(a5)
    1364:	00578023          	sb	t0,0(a5)
    1368:	01f78023          	sb	t6,0(a5)
    136c:	01e78023          	sb	t5,0(a5)
    1370:	01d78023          	sb	t4,0(a5)
    1374:	01c78023          	sb	t3,0(a5)
    1378:	00678023          	sb	t1,0(a5)
    137c:	01178023          	sb	a7,0(a5)
    1380:	01078023          	sb	a6,0(a5)
    1384:	00a78023          	sb	a0,0(a5)
    1388:	00b78023          	sb	a1,0(a5)
    138c:	00c78023          	sb	a2,0(a5)
    1390:	00d78023          	sb	a3,0(a5)
    1394:	00e78023          	sb	a4,0(a5)
    1398:	00978023          	sb	s1,0(a5)
    139c:	00878023          	sb	s0,0(a5)
    13a0:	00778023          	sb	t2,0(a5)
    13a4:	00578023          	sb	t0,0(a5)
    13a8:	01f78023          	sb	t6,0(a5)
    13ac:	01e78023          	sb	t5,0(a5)
    13b0:	01d78023          	sb	t4,0(a5)
    13b4:	01c78023          	sb	t3,0(a5)
    13b8:	00678023          	sb	t1,0(a5)
    13bc:	01178023          	sb	a7,0(a5)
    13c0:	01078023          	sb	a6,0(a5)
    13c4:	00a78023          	sb	a0,0(a5)
    13c8:	00b78023          	sb	a1,0(a5)
    13cc:	00c78023          	sb	a2,0(a5)
    13d0:	00d78023          	sb	a3,0(a5)
    13d4:	00e78023          	sb	a4,0(a5)
    13d8:	00978023          	sb	s1,0(a5)
    13dc:	00878023          	sb	s0,0(a5)
    13e0:	00778023          	sb	t2,0(a5)
    13e4:	00578023          	sb	t0,0(a5)
    13e8:	01f78023          	sb	t6,0(a5)
    13ec:	01e78023          	sb	t5,0(a5)
    13f0:	01d78023          	sb	t4,0(a5)
    13f4:	01c78023          	sb	t3,0(a5)
    13f8:	00678023          	sb	t1,0(a5)
    13fc:	01178023          	sb	a7,0(a5)
    1400:	01078023          	sb	a6,0(a5)
    1404:	00a78023          	sb	a0,0(a5)
    1408:	00b78023          	sb	a1,0(a5)
    140c:	00c78023          	sb	a2,0(a5)
    1410:	00d78023          	sb	a3,0(a5)
    1414:	00e78023          	sb	a4,0(a5)
    1418:	00978023          	sb	s1,0(a5)
    141c:	00878023          	sb	s0,0(a5)
    1420:	00778023          	sb	t2,0(a5)
    1424:	00578023          	sb	t0,0(a5)
    1428:	01f78023          	sb	t6,0(a5)
    142c:	01e78023          	sb	t5,0(a5)
    1430:	01d78023          	sb	t4,0(a5)
    1434:	01c78023          	sb	t3,0(a5)
    1438:	00678023          	sb	t1,0(a5)
    143c:	01178023          	sb	a7,0(a5)
    1440:	01078023          	sb	a6,0(a5)
    1444:	00a78023          	sb	a0,0(a5)
    1448:	00b78023          	sb	a1,0(a5)
    144c:	00c78023          	sb	a2,0(a5)
    1450:	00d78023          	sb	a3,0(a5)
    1454:	00e78023          	sb	a4,0(a5)
    1458:	00978023          	sb	s1,0(a5)
    145c:	00878023          	sb	s0,0(a5)
    1460:	00778023          	sb	t2,0(a5)
    1464:	00578023          	sb	t0,0(a5)
    1468:	01f78023          	sb	t6,0(a5)
    146c:	01e78023          	sb	t5,0(a5)
    1470:	01d78023          	sb	t4,0(a5)
    1474:	01c78023          	sb	t3,0(a5)
    1478:	00678023          	sb	t1,0(a5)
    147c:	01178023          	sb	a7,0(a5)
    1480:	01078023          	sb	a6,0(a5)
    1484:	00a78023          	sb	a0,0(a5)
    1488:	00b78023          	sb	a1,0(a5)
    148c:	00c78023          	sb	a2,0(a5)
    1490:	00d78023          	sb	a3,0(a5)
    1494:	00e78023          	sb	a4,0(a5)
    1498:	00978023          	sb	s1,0(a5)
    149c:	00878023          	sb	s0,0(a5)
    14a0:	00778023          	sb	t2,0(a5)
    14a4:	00578023          	sb	t0,0(a5)
    14a8:	01f78023          	sb	t6,0(a5)
    14ac:	01e78023          	sb	t5,0(a5)
    14b0:	01d78023          	sb	t4,0(a5)
    14b4:	01c78023          	sb	t3,0(a5)
    14b8:	00678023          	sb	t1,0(a5)
    14bc:	01178023          	sb	a7,0(a5)
    14c0:	01078023          	sb	a6,0(a5)
    14c4:	00a78023          	sb	a0,0(a5)
    14c8:	00b78023          	sb	a1,0(a5)
    14cc:	00c78023          	sb	a2,0(a5)
    14d0:	00d78023          	sb	a3,0(a5)
    14d4:	00e78023          	sb	a4,0(a5)
    14d8:	00978023          	sb	s1,0(a5)
    14dc:	00878023          	sb	s0,0(a5)
    14e0:	00778023          	sb	t2,0(a5)
    14e4:	00578023          	sb	t0,0(a5)
    14e8:	01f78023          	sb	t6,0(a5)
    14ec:	01e78023          	sb	t5,0(a5)
    14f0:	01d78023          	sb	t4,0(a5)
    14f4:	01c78023          	sb	t3,0(a5)
    14f8:	00678023          	sb	t1,0(a5)
    14fc:	01178023          	sb	a7,0(a5)
    1500:	01078023          	sb	a6,0(a5)
    1504:	00a78023          	sb	a0,0(a5)
    1508:	00b78023          	sb	a1,0(a5)
    150c:	00c78023          	sb	a2,0(a5)
    1510:	00d78023          	sb	a3,0(a5)
    1514:	00e78023          	sb	a4,0(a5)
    1518:	00978023          	sb	s1,0(a5)
    151c:	00878023          	sb	s0,0(a5)
    1520:	00778023          	sb	t2,0(a5)
    1524:	00578023          	sb	t0,0(a5)
    1528:	01f78023          	sb	t6,0(a5)
    152c:	01e78023          	sb	t5,0(a5)
    1530:	01d78023          	sb	t4,0(a5)
    1534:	01c78023          	sb	t3,0(a5)
    1538:	00678023          	sb	t1,0(a5)
    153c:	01178023          	sb	a7,0(a5)
    1540:	01078023          	sb	a6,0(a5)
    1544:	00a78023          	sb	a0,0(a5)
    1548:	00b78023          	sb	a1,0(a5)
    154c:	00c78023          	sb	a2,0(a5)
    1550:	00d78023          	sb	a3,0(a5)
    1554:	00e78023          	sb	a4,0(a5)
    1558:	00978023          	sb	s1,0(a5)
    155c:	00878023          	sb	s0,0(a5)
    1560:	00778023          	sb	t2,0(a5)
    1564:	00578023          	sb	t0,0(a5)
    1568:	01f78023          	sb	t6,0(a5)
    156c:	01e78023          	sb	t5,0(a5)
    1570:	01d78023          	sb	t4,0(a5)
    1574:	01c78023          	sb	t3,0(a5)
    1578:	00678023          	sb	t1,0(a5)
    157c:	01178023          	sb	a7,0(a5)
    1580:	01078023          	sb	a6,0(a5)
    1584:	00a78023          	sb	a0,0(a5)
    1588:	00b78023          	sb	a1,0(a5)
    158c:	00c78023          	sb	a2,0(a5)
    1590:	00d78023          	sb	a3,0(a5)
    1594:	00e78023          	sb	a4,0(a5)
    1598:	00978023          	sb	s1,0(a5)
    159c:	00878023          	sb	s0,0(a5)
    15a0:	00778023          	sb	t2,0(a5)
    15a4:	00578023          	sb	t0,0(a5)
    15a8:	01f78023          	sb	t6,0(a5)
    15ac:	01e78023          	sb	t5,0(a5)
    15b0:	01d78023          	sb	t4,0(a5)
    15b4:	01c78023          	sb	t3,0(a5)
    15b8:	00678023          	sb	t1,0(a5)
    15bc:	01178023          	sb	a7,0(a5)
    15c0:	01078023          	sb	a6,0(a5)
    15c4:	00a78023          	sb	a0,0(a5)
    15c8:	00b78023          	sb	a1,0(a5)
    15cc:	00c78023          	sb	a2,0(a5)
    15d0:	00d78023          	sb	a3,0(a5)
    15d4:	00e78023          	sb	a4,0(a5)
    15d8:	00978023          	sb	s1,0(a5)
    15dc:	00878023          	sb	s0,0(a5)
    15e0:	00778023          	sb	t2,0(a5)
    15e4:	00578023          	sb	t0,0(a5)
    15e8:	01f78023          	sb	t6,0(a5)
    15ec:	01e78023          	sb	t5,0(a5)
    15f0:	01d78023          	sb	t4,0(a5)
    15f4:	01c78023          	sb	t3,0(a5)
    15f8:	00678023          	sb	t1,0(a5)
    15fc:	01178023          	sb	a7,0(a5)
    1600:	01078023          	sb	a6,0(a5)
    1604:	00a78023          	sb	a0,0(a5)
    1608:	00b78023          	sb	a1,0(a5)
    160c:	00c78023          	sb	a2,0(a5)
    1610:	00d78023          	sb	a3,0(a5)
    1614:	00e78023          	sb	a4,0(a5)
    1618:	00978023          	sb	s1,0(a5)
    161c:	00878023          	sb	s0,0(a5)
    1620:	00778023          	sb	t2,0(a5)
    1624:	00578023          	sb	t0,0(a5)
    1628:	01f78023          	sb	t6,0(a5)
    162c:	01e78023          	sb	t5,0(a5)
    1630:	01d78023          	sb	t4,0(a5)
    1634:	01c78023          	sb	t3,0(a5)
    1638:	00678023          	sb	t1,0(a5)
    163c:	01178023          	sb	a7,0(a5)
    1640:	01078023          	sb	a6,0(a5)
    1644:	00a78023          	sb	a0,0(a5)
    1648:	00b78023          	sb	a1,0(a5)
    164c:	00c78023          	sb	a2,0(a5)
    1650:	00d78023          	sb	a3,0(a5)
    1654:	00e78023          	sb	a4,0(a5)
    1658:	00978023          	sb	s1,0(a5)
    165c:	00878023          	sb	s0,0(a5)
    1660:	00778023          	sb	t2,0(a5)
    1664:	00578023          	sb	t0,0(a5)
    1668:	01f78023          	sb	t6,0(a5)
    166c:	01e78023          	sb	t5,0(a5)
    1670:	01d78023          	sb	t4,0(a5)
    1674:	01c78023          	sb	t3,0(a5)
    1678:	00678023          	sb	t1,0(a5)
    167c:	01178023          	sb	a7,0(a5)
    1680:	01078023          	sb	a6,0(a5)
    1684:	00a78023          	sb	a0,0(a5)
    1688:	00b78023          	sb	a1,0(a5)
    168c:	00c78023          	sb	a2,0(a5)
    1690:	00d78023          	sb	a3,0(a5)
    1694:	00e78023          	sb	a4,0(a5)
    1698:	00978023          	sb	s1,0(a5)
    169c:	00878023          	sb	s0,0(a5)
    16a0:	00778023          	sb	t2,0(a5)
    16a4:	00578023          	sb	t0,0(a5)
    16a8:	01f78023          	sb	t6,0(a5)
    16ac:	01e78023          	sb	t5,0(a5)
    16b0:	01d78023          	sb	t4,0(a5)
    16b4:	01c78023          	sb	t3,0(a5)
    16b8:	00678023          	sb	t1,0(a5)
    16bc:	01178023          	sb	a7,0(a5)
    16c0:	01078023          	sb	a6,0(a5)
    16c4:	00a78023          	sb	a0,0(a5)
    16c8:	00b78023          	sb	a1,0(a5)
    16cc:	00c78023          	sb	a2,0(a5)
    16d0:	00d78023          	sb	a3,0(a5)
    16d4:	00e78023          	sb	a4,0(a5)
    16d8:	00978023          	sb	s1,0(a5)
    16dc:	00878023          	sb	s0,0(a5)
    16e0:	00778023          	sb	t2,0(a5)
    16e4:	00578023          	sb	t0,0(a5)
    16e8:	01f78023          	sb	t6,0(a5)
    16ec:	01e78023          	sb	t5,0(a5)
    16f0:	01d78023          	sb	t4,0(a5)
    16f4:	01c78023          	sb	t3,0(a5)
    16f8:	00678023          	sb	t1,0(a5)
    16fc:	01178023          	sb	a7,0(a5)
    1700:	01078023          	sb	a6,0(a5)
    1704:	00a78023          	sb	a0,0(a5)
    1708:	00b78023          	sb	a1,0(a5)
    170c:	00c78023          	sb	a2,0(a5)
    1710:	00d78023          	sb	a3,0(a5)
    1714:	00e78023          	sb	a4,0(a5)
    1718:	00978023          	sb	s1,0(a5)
    171c:	00878023          	sb	s0,0(a5)
    1720:	00778023          	sb	t2,0(a5)
    1724:	00578023          	sb	t0,0(a5)
    1728:	01f78023          	sb	t6,0(a5)
    172c:	01e78023          	sb	t5,0(a5)
    1730:	01d78023          	sb	t4,0(a5)
    1734:	01c78023          	sb	t3,0(a5)
    1738:	00678023          	sb	t1,0(a5)
    173c:	01178023          	sb	a7,0(a5)
    1740:	01078023          	sb	a6,0(a5)
    1744:	00a78023          	sb	a0,0(a5)
    1748:	00b78023          	sb	a1,0(a5)
    174c:	00c78023          	sb	a2,0(a5)
    1750:	00d78023          	sb	a3,0(a5)
    1754:	00e78023          	sb	a4,0(a5)
    1758:	00978023          	sb	s1,0(a5)
    175c:	00878023          	sb	s0,0(a5)
    1760:	00778023          	sb	t2,0(a5)
    1764:	00578023          	sb	t0,0(a5)
    1768:	01f78023          	sb	t6,0(a5)
    176c:	01e78023          	sb	t5,0(a5)
    1770:	01d78023          	sb	t4,0(a5)
    1774:	01c78023          	sb	t3,0(a5)
    1778:	00678023          	sb	t1,0(a5)
    177c:	01178023          	sb	a7,0(a5)
    1780:	01078023          	sb	a6,0(a5)
    1784:	00a78023          	sb	a0,0(a5)
    1788:	00b78023          	sb	a1,0(a5)
    178c:	00c78023          	sb	a2,0(a5)
    1790:	00d78023          	sb	a3,0(a5)
    1794:	00e78023          	sb	a4,0(a5)
    1798:	00978023          	sb	s1,0(a5)
    179c:	00878023          	sb	s0,0(a5)
    17a0:	00778023          	sb	t2,0(a5)
    17a4:	00578023          	sb	t0,0(a5)
    17a8:	01f78023          	sb	t6,0(a5)
    17ac:	01e78023          	sb	t5,0(a5)
    17b0:	01d78023          	sb	t4,0(a5)
    17b4:	01c78023          	sb	t3,0(a5)
    17b8:	00678023          	sb	t1,0(a5)
    17bc:	01178023          	sb	a7,0(a5)
    17c0:	01078023          	sb	a6,0(a5)
    17c4:	00a78023          	sb	a0,0(a5)
    17c8:	00b78023          	sb	a1,0(a5)
    17cc:	00c78023          	sb	a2,0(a5)
    17d0:	00d78023          	sb	a3,0(a5)
    17d4:	00e78023          	sb	a4,0(a5)
    17d8:	00978023          	sb	s1,0(a5)
    17dc:	00878023          	sb	s0,0(a5)
    17e0:	00778023          	sb	t2,0(a5)
    17e4:	00578023          	sb	t0,0(a5)
    17e8:	01f78023          	sb	t6,0(a5)
    17ec:	01e78023          	sb	t5,0(a5)
    17f0:	01d78023          	sb	t4,0(a5)
    17f4:	01c78023          	sb	t3,0(a5)
    17f8:	00678023          	sb	t1,0(a5)
    17fc:	01178023          	sb	a7,0(a5)
    1800:	01078023          	sb	a6,0(a5)
    1804:	00a78023          	sb	a0,0(a5)
    1808:	00b78023          	sb	a1,0(a5)
    180c:	00c78023          	sb	a2,0(a5)
    1810:	00d78023          	sb	a3,0(a5)
    1814:	00e78023          	sb	a4,0(a5)
    1818:	00978023          	sb	s1,0(a5)
    181c:	00878023          	sb	s0,0(a5)
    1820:	00778023          	sb	t2,0(a5)
    1824:	00578023          	sb	t0,0(a5)
    1828:	01f78023          	sb	t6,0(a5)
    182c:	01e78023          	sb	t5,0(a5)
    1830:	01d78023          	sb	t4,0(a5)
    1834:	01c78023          	sb	t3,0(a5)
    1838:	00678023          	sb	t1,0(a5)
    183c:	01178023          	sb	a7,0(a5)
    1840:	01078023          	sb	a6,0(a5)
    1844:	00a78023          	sb	a0,0(a5)
    1848:	00b78023          	sb	a1,0(a5)
    184c:	00c78023          	sb	a2,0(a5)
    1850:	00d78023          	sb	a3,0(a5)
    1854:	00e78023          	sb	a4,0(a5)
    1858:	00978023          	sb	s1,0(a5)
    185c:	00878023          	sb	s0,0(a5)
    1860:	00778023          	sb	t2,0(a5)
    1864:	00578023          	sb	t0,0(a5)
    1868:	01f78023          	sb	t6,0(a5)
    186c:	01e78023          	sb	t5,0(a5)
    1870:	01d78023          	sb	t4,0(a5)
    1874:	01c78023          	sb	t3,0(a5)
    1878:	00678023          	sb	t1,0(a5)
    187c:	01178023          	sb	a7,0(a5)
    1880:	01078023          	sb	a6,0(a5)
    1884:	00a78023          	sb	a0,0(a5)
    1888:	00b78023          	sb	a1,0(a5)
    188c:	00c78023          	sb	a2,0(a5)
    1890:	00d78023          	sb	a3,0(a5)
    1894:	00e78023          	sb	a4,0(a5)
    1898:	00978023          	sb	s1,0(a5)
    189c:	00878023          	sb	s0,0(a5)
    18a0:	00778023          	sb	t2,0(a5)
    18a4:	00578023          	sb	t0,0(a5)
    18a8:	01f78023          	sb	t6,0(a5)
    18ac:	01e78023          	sb	t5,0(a5)
    18b0:	01d78023          	sb	t4,0(a5)
    18b4:	01c78023          	sb	t3,0(a5)
    18b8:	00678023          	sb	t1,0(a5)
    18bc:	01178023          	sb	a7,0(a5)
    18c0:	01078023          	sb	a6,0(a5)
    18c4:	00a78023          	sb	a0,0(a5)
    18c8:	00b78023          	sb	a1,0(a5)
    18cc:	00c78023          	sb	a2,0(a5)
    18d0:	00d78023          	sb	a3,0(a5)
    18d4:	00e78023          	sb	a4,0(a5)
    18d8:	00978023          	sb	s1,0(a5)
    18dc:	00878023          	sb	s0,0(a5)
    18e0:	00778023          	sb	t2,0(a5)
    18e4:	00578023          	sb	t0,0(a5)
    18e8:	01f78023          	sb	t6,0(a5)
    18ec:	01e78023          	sb	t5,0(a5)
    18f0:	01d78023          	sb	t4,0(a5)
    18f4:	01c78023          	sb	t3,0(a5)
    18f8:	00678023          	sb	t1,0(a5)
    18fc:	01178023          	sb	a7,0(a5)
    1900:	01078023          	sb	a6,0(a5)
    1904:	00a78023          	sb	a0,0(a5)
    1908:	00b78023          	sb	a1,0(a5)
    190c:	00c78023          	sb	a2,0(a5)
    1910:	00d78023          	sb	a3,0(a5)
    1914:	00e78023          	sb	a4,0(a5)
    1918:	00978023          	sb	s1,0(a5)
    191c:	00878023          	sb	s0,0(a5)
    1920:	00778023          	sb	t2,0(a5)
    1924:	00578023          	sb	t0,0(a5)
    1928:	01f78023          	sb	t6,0(a5)
    192c:	01e78023          	sb	t5,0(a5)
    1930:	01d78023          	sb	t4,0(a5)
    1934:	01c78023          	sb	t3,0(a5)
    1938:	00678023          	sb	t1,0(a5)
    193c:	01178023          	sb	a7,0(a5)
    1940:	01078023          	sb	a6,0(a5)
    1944:	00a78023          	sb	a0,0(a5)
    1948:	00b78023          	sb	a1,0(a5)
    194c:	00c78023          	sb	a2,0(a5)
    1950:	00d78023          	sb	a3,0(a5)
    1954:	00e78023          	sb	a4,0(a5)
    1958:	00978023          	sb	s1,0(a5)
    195c:	00878023          	sb	s0,0(a5)
    1960:	00778023          	sb	t2,0(a5)
    1964:	00578023          	sb	t0,0(a5)
    1968:	01f78023          	sb	t6,0(a5)
    196c:	01e78023          	sb	t5,0(a5)
    1970:	01d78023          	sb	t4,0(a5)
    1974:	01c78023          	sb	t3,0(a5)
    1978:	00678023          	sb	t1,0(a5)
    197c:	01178023          	sb	a7,0(a5)
    1980:	01078023          	sb	a6,0(a5)
    1984:	00a78023          	sb	a0,0(a5)
    1988:	00b78023          	sb	a1,0(a5)
    198c:	00c78023          	sb	a2,0(a5)
    1990:	00d78023          	sb	a3,0(a5)
    1994:	00e78023          	sb	a4,0(a5)
    1998:	00978023          	sb	s1,0(a5)
    199c:	00878023          	sb	s0,0(a5)
    19a0:	00778023          	sb	t2,0(a5)
    19a4:	00578023          	sb	t0,0(a5)
    19a8:	01f78023          	sb	t6,0(a5)
    19ac:	01e78023          	sb	t5,0(a5)
    19b0:	01d78023          	sb	t4,0(a5)
    19b4:	01c78023          	sb	t3,0(a5)
    19b8:	00678023          	sb	t1,0(a5)
    19bc:	01178023          	sb	a7,0(a5)
    19c0:	01078023          	sb	a6,0(a5)
    19c4:	00a78023          	sb	a0,0(a5)
    19c8:	00b78023          	sb	a1,0(a5)
    19cc:	00c78023          	sb	a2,0(a5)
    19d0:	00d78023          	sb	a3,0(a5)
    19d4:	00e78023          	sb	a4,0(a5)
    19d8:	00978023          	sb	s1,0(a5)
    19dc:	00878023          	sb	s0,0(a5)
    19e0:	00778023          	sb	t2,0(a5)
    19e4:	00578023          	sb	t0,0(a5)
    19e8:	01f78023          	sb	t6,0(a5)
    19ec:	01e78023          	sb	t5,0(a5)
    19f0:	01d78023          	sb	t4,0(a5)
    19f4:	01c78023          	sb	t3,0(a5)
    19f8:	00678023          	sb	t1,0(a5)
    19fc:	01178023          	sb	a7,0(a5)
    1a00:	01078023          	sb	a6,0(a5)
    1a04:	00a78023          	sb	a0,0(a5)
    1a08:	00b78023          	sb	a1,0(a5)
    1a0c:	00c78023          	sb	a2,0(a5)
    1a10:	00d78023          	sb	a3,0(a5)
    1a14:	00e78023          	sb	a4,0(a5)
    1a18:	00978023          	sb	s1,0(a5)
    1a1c:	00878023          	sb	s0,0(a5)
    1a20:	00778023          	sb	t2,0(a5)
    1a24:	00578023          	sb	t0,0(a5)
    1a28:	01f78023          	sb	t6,0(a5)
    1a2c:	01e78023          	sb	t5,0(a5)
    1a30:	01d78023          	sb	t4,0(a5)
    1a34:	01c78023          	sb	t3,0(a5)
    1a38:	00678023          	sb	t1,0(a5)
    1a3c:	01178023          	sb	a7,0(a5)
    1a40:	01078023          	sb	a6,0(a5)
    1a44:	00a78023          	sb	a0,0(a5)
    1a48:	00b78023          	sb	a1,0(a5)
    1a4c:	00c78023          	sb	a2,0(a5)
    1a50:	00d78023          	sb	a3,0(a5)
    1a54:	00e78023          	sb	a4,0(a5)
    1a58:	00978023          	sb	s1,0(a5)
    1a5c:	00878023          	sb	s0,0(a5)
    1a60:	00778023          	sb	t2,0(a5)
    1a64:	00578023          	sb	t0,0(a5)
    1a68:	01f78023          	sb	t6,0(a5)
    1a6c:	01e78023          	sb	t5,0(a5)
    1a70:	01d78023          	sb	t4,0(a5)
    1a74:	01c78023          	sb	t3,0(a5)
    1a78:	00678023          	sb	t1,0(a5)
    1a7c:	01178023          	sb	a7,0(a5)
    1a80:	01078023          	sb	a6,0(a5)
    1a84:	00a78023          	sb	a0,0(a5)
    1a88:	00b78023          	sb	a1,0(a5)
    1a8c:	00c78023          	sb	a2,0(a5)
    1a90:	00d78023          	sb	a3,0(a5)
    1a94:	00e78023          	sb	a4,0(a5)
    1a98:	00978023          	sb	s1,0(a5)
    1a9c:	00878023          	sb	s0,0(a5)
    1aa0:	00778023          	sb	t2,0(a5)
    1aa4:	00578023          	sb	t0,0(a5)
    1aa8:	01f78023          	sb	t6,0(a5)
    1aac:	01e78023          	sb	t5,0(a5)
    1ab0:	01d78023          	sb	t4,0(a5)
    1ab4:	01c78023          	sb	t3,0(a5)
    1ab8:	00678023          	sb	t1,0(a5)
    1abc:	01178023          	sb	a7,0(a5)
    1ac0:	01078023          	sb	a6,0(a5)
    1ac4:	00a78023          	sb	a0,0(a5)
    1ac8:	00b78023          	sb	a1,0(a5)
    1acc:	00c78023          	sb	a2,0(a5)
    1ad0:	00d78023          	sb	a3,0(a5)
    1ad4:	00e78023          	sb	a4,0(a5)
    1ad8:	00978023          	sb	s1,0(a5)
    1adc:	00878023          	sb	s0,0(a5)
    1ae0:	00778023          	sb	t2,0(a5)
    1ae4:	00578023          	sb	t0,0(a5)
    1ae8:	01f78023          	sb	t6,0(a5)
    1aec:	01e78023          	sb	t5,0(a5)
    1af0:	01d78023          	sb	t4,0(a5)
    1af4:	01c78023          	sb	t3,0(a5)
    1af8:	00678023          	sb	t1,0(a5)
    1afc:	01178023          	sb	a7,0(a5)
    1b00:	01078023          	sb	a6,0(a5)
    1b04:	00a78023          	sb	a0,0(a5)
    1b08:	00b78023          	sb	a1,0(a5)
    1b0c:	00c78023          	sb	a2,0(a5)
    1b10:	00d78023          	sb	a3,0(a5)
    1b14:	00e78023          	sb	a4,0(a5)
    1b18:	00978023          	sb	s1,0(a5)
    1b1c:	00878023          	sb	s0,0(a5)
    1b20:	00778023          	sb	t2,0(a5)
    1b24:	00578023          	sb	t0,0(a5)
    1b28:	01f78023          	sb	t6,0(a5)
    1b2c:	01e78023          	sb	t5,0(a5)
    1b30:	01d78023          	sb	t4,0(a5)
    1b34:	01c78023          	sb	t3,0(a5)
    1b38:	00678023          	sb	t1,0(a5)
    1b3c:	01178023          	sb	a7,0(a5)
    1b40:	01078023          	sb	a6,0(a5)
    1b44:	00a78023          	sb	a0,0(a5)
    1b48:	00b78023          	sb	a1,0(a5)
    1b4c:	00c78023          	sb	a2,0(a5)
    1b50:	00d78023          	sb	a3,0(a5)
    1b54:	00e78023          	sb	a4,0(a5)
    1b58:	00978023          	sb	s1,0(a5)
    1b5c:	00878023          	sb	s0,0(a5)
    1b60:	00778023          	sb	t2,0(a5)
    1b64:	00578023          	sb	t0,0(a5)
    1b68:	01f78023          	sb	t6,0(a5)
    1b6c:	01e78023          	sb	t5,0(a5)
    1b70:	01d78023          	sb	t4,0(a5)
    1b74:	01c78023          	sb	t3,0(a5)
    1b78:	00678023          	sb	t1,0(a5)
    1b7c:	01178023          	sb	a7,0(a5)
    1b80:	01078023          	sb	a6,0(a5)
    1b84:	00a78023          	sb	a0,0(a5)
    1b88:	00b78023          	sb	a1,0(a5)
    1b8c:	00c78023          	sb	a2,0(a5)
    1b90:	00d78023          	sb	a3,0(a5)
    1b94:	00e78023          	sb	a4,0(a5)
    1b98:	00978023          	sb	s1,0(a5)
    1b9c:	00878023          	sb	s0,0(a5)
    1ba0:	00778023          	sb	t2,0(a5)
    1ba4:	00578023          	sb	t0,0(a5)
    1ba8:	01f78023          	sb	t6,0(a5)
    1bac:	01e78023          	sb	t5,0(a5)
    1bb0:	01d78023          	sb	t4,0(a5)
    1bb4:	01c78023          	sb	t3,0(a5)
    1bb8:	00678023          	sb	t1,0(a5)
    1bbc:	01178023          	sb	a7,0(a5)
    1bc0:	01078023          	sb	a6,0(a5)
    1bc4:	00a78023          	sb	a0,0(a5)
    1bc8:	00b78023          	sb	a1,0(a5)
    1bcc:	00c78023          	sb	a2,0(a5)
    1bd0:	00d78023          	sb	a3,0(a5)
    1bd4:	00e78023          	sb	a4,0(a5)
    1bd8:	00978023          	sb	s1,0(a5)
    1bdc:	00878023          	sb	s0,0(a5)
    1be0:	00778023          	sb	t2,0(a5)
    1be4:	00578023          	sb	t0,0(a5)
    1be8:	01f78023          	sb	t6,0(a5)
    1bec:	01e78023          	sb	t5,0(a5)
    1bf0:	01d78023          	sb	t4,0(a5)
    1bf4:	01c78023          	sb	t3,0(a5)
    1bf8:	00678023          	sb	t1,0(a5)
    1bfc:	01178023          	sb	a7,0(a5)
    1c00:	01078023          	sb	a6,0(a5)
    1c04:	00a78023          	sb	a0,0(a5)
    1c08:	00b78023          	sb	a1,0(a5)
    1c0c:	00c78023          	sb	a2,0(a5)
    1c10:	00d78023          	sb	a3,0(a5)
    1c14:	00e78023          	sb	a4,0(a5)
    1c18:	00978023          	sb	s1,0(a5)
    1c1c:	00878023          	sb	s0,0(a5)
    1c20:	00778023          	sb	t2,0(a5)
    1c24:	00578023          	sb	t0,0(a5)
    1c28:	01f78023          	sb	t6,0(a5)
    1c2c:	01e78023          	sb	t5,0(a5)
    1c30:	01d78023          	sb	t4,0(a5)
    1c34:	01c78023          	sb	t3,0(a5)
    1c38:	00678023          	sb	t1,0(a5)
    1c3c:	01178023          	sb	a7,0(a5)
    1c40:	01078023          	sb	a6,0(a5)
    1c44:	00a78023          	sb	a0,0(a5)
    1c48:	00b78023          	sb	a1,0(a5)
    1c4c:	00c78023          	sb	a2,0(a5)
    1c50:	00d78023          	sb	a3,0(a5)
    1c54:	00e78023          	sb	a4,0(a5)
    1c58:	00978023          	sb	s1,0(a5)
    1c5c:	00878023          	sb	s0,0(a5)
    1c60:	00778023          	sb	t2,0(a5)
    1c64:	00578023          	sb	t0,0(a5)
    1c68:	01f78023          	sb	t6,0(a5)
    1c6c:	01e78023          	sb	t5,0(a5)
    1c70:	01d78023          	sb	t4,0(a5)
    1c74:	01c78023          	sb	t3,0(a5)
    1c78:	00678023          	sb	t1,0(a5)
    1c7c:	01178023          	sb	a7,0(a5)
    1c80:	01078023          	sb	a6,0(a5)
    1c84:	00a78023          	sb	a0,0(a5)
    1c88:	00b78023          	sb	a1,0(a5)
    1c8c:	00c78023          	sb	a2,0(a5)
    1c90:	00d78023          	sb	a3,0(a5)
    1c94:	00e78023          	sb	a4,0(a5)
    1c98:	00978023          	sb	s1,0(a5)
    1c9c:	00878023          	sb	s0,0(a5)
    1ca0:	00778023          	sb	t2,0(a5)
    1ca4:	00578023          	sb	t0,0(a5)
    1ca8:	01f78023          	sb	t6,0(a5)
    1cac:	01e78023          	sb	t5,0(a5)
    1cb0:	01d78023          	sb	t4,0(a5)
    1cb4:	01c78023          	sb	t3,0(a5)
    1cb8:	00678023          	sb	t1,0(a5)
    1cbc:	01178023          	sb	a7,0(a5)
    1cc0:	01078023          	sb	a6,0(a5)
    1cc4:	00a78023          	sb	a0,0(a5)
    1cc8:	00b78023          	sb	a1,0(a5)
    1ccc:	00c78023          	sb	a2,0(a5)
    1cd0:	00d78023          	sb	a3,0(a5)
    1cd4:	00e78023          	sb	a4,0(a5)
    1cd8:	00978023          	sb	s1,0(a5)
    1cdc:	00878023          	sb	s0,0(a5)
    1ce0:	00778023          	sb	t2,0(a5)
    1ce4:	00578023          	sb	t0,0(a5)
    1ce8:	01f78023          	sb	t6,0(a5)
    1cec:	01e78023          	sb	t5,0(a5)
    1cf0:	01d78023          	sb	t4,0(a5)
    1cf4:	01c78023          	sb	t3,0(a5)
    1cf8:	00678023          	sb	t1,0(a5)
    1cfc:	01178023          	sb	a7,0(a5)
    1d00:	01078023          	sb	a6,0(a5)
    1d04:	00a78023          	sb	a0,0(a5)
    1d08:	00b78023          	sb	a1,0(a5)
    1d0c:	00c78023          	sb	a2,0(a5)
    1d10:	00d78023          	sb	a3,0(a5)
    1d14:	00e78023          	sb	a4,0(a5)
    1d18:	00978023          	sb	s1,0(a5)
    1d1c:	00878023          	sb	s0,0(a5)
    1d20:	00778023          	sb	t2,0(a5)
    1d24:	00578023          	sb	t0,0(a5)
    1d28:	01f78023          	sb	t6,0(a5)
    1d2c:	01e78023          	sb	t5,0(a5)
    1d30:	01d78023          	sb	t4,0(a5)
    1d34:	01c78023          	sb	t3,0(a5)
    1d38:	00678023          	sb	t1,0(a5)
    1d3c:	01178023          	sb	a7,0(a5)
    1d40:	01078023          	sb	a6,0(a5)
    1d44:	00a78023          	sb	a0,0(a5)
    1d48:	00b78023          	sb	a1,0(a5)
    1d4c:	00c78023          	sb	a2,0(a5)
    1d50:	00d78023          	sb	a3,0(a5)
    1d54:	00e78023          	sb	a4,0(a5)
    1d58:	00978023          	sb	s1,0(a5)
    1d5c:	00878023          	sb	s0,0(a5)
    1d60:	00778023          	sb	t2,0(a5)
    1d64:	00578023          	sb	t0,0(a5)
    1d68:	01f78023          	sb	t6,0(a5)
    1d6c:	01e78023          	sb	t5,0(a5)
    1d70:	01d78023          	sb	t4,0(a5)
    1d74:	01c78023          	sb	t3,0(a5)
    1d78:	00678023          	sb	t1,0(a5)
    1d7c:	01178023          	sb	a7,0(a5)
    1d80:	01078023          	sb	a6,0(a5)
    1d84:	00a78023          	sb	a0,0(a5)
    1d88:	00b78023          	sb	a1,0(a5)
    1d8c:	00c78023          	sb	a2,0(a5)
    1d90:	00d78023          	sb	a3,0(a5)
    1d94:	00e78023          	sb	a4,0(a5)
    1d98:	00978023          	sb	s1,0(a5)
    1d9c:	00878023          	sb	s0,0(a5)
    1da0:	00778023          	sb	t2,0(a5)
    1da4:	00578023          	sb	t0,0(a5)
    1da8:	01f78023          	sb	t6,0(a5)
    1dac:	01e78023          	sb	t5,0(a5)
    1db0:	01d78023          	sb	t4,0(a5)
    1db4:	01c78023          	sb	t3,0(a5)
    1db8:	00678023          	sb	t1,0(a5)
    1dbc:	01178023          	sb	a7,0(a5)
    1dc0:	01078023          	sb	a6,0(a5)
    1dc4:	00a78023          	sb	a0,0(a5)
    1dc8:	00b78023          	sb	a1,0(a5)
    1dcc:	00c78023          	sb	a2,0(a5)
    1dd0:	00d78023          	sb	a3,0(a5)
    1dd4:	00e78023          	sb	a4,0(a5)
    1dd8:	00978023          	sb	s1,0(a5)
    1ddc:	00878023          	sb	s0,0(a5)
    1de0:	00778023          	sb	t2,0(a5)
    1de4:	00578023          	sb	t0,0(a5)
    1de8:	01f78023          	sb	t6,0(a5)
    1dec:	01e78023          	sb	t5,0(a5)
    1df0:	01d78023          	sb	t4,0(a5)
    1df4:	01c78023          	sb	t3,0(a5)
    1df8:	00678023          	sb	t1,0(a5)
    1dfc:	01178023          	sb	a7,0(a5)
    1e00:	01078023          	sb	a6,0(a5)
    1e04:	00a78023          	sb	a0,0(a5)
    1e08:	00b78023          	sb	a1,0(a5)
    1e0c:	00c78023          	sb	a2,0(a5)
    1e10:	00d78023          	sb	a3,0(a5)
    1e14:	00e78023          	sb	a4,0(a5)
    1e18:	00978023          	sb	s1,0(a5)
    1e1c:	00878023          	sb	s0,0(a5)
    1e20:	00778023          	sb	t2,0(a5)
    1e24:	00578023          	sb	t0,0(a5)
    1e28:	01f78023          	sb	t6,0(a5)
    1e2c:	01e78023          	sb	t5,0(a5)
    1e30:	01d78023          	sb	t4,0(a5)
    1e34:	01c78023          	sb	t3,0(a5)
    1e38:	00678023          	sb	t1,0(a5)
    1e3c:	01178023          	sb	a7,0(a5)
    1e40:	01078023          	sb	a6,0(a5)
    1e44:	00a78023          	sb	a0,0(a5)
    1e48:	00b78023          	sb	a1,0(a5)
    1e4c:	00c78023          	sb	a2,0(a5)
    1e50:	00d78023          	sb	a3,0(a5)
    1e54:	00e78023          	sb	a4,0(a5)
    1e58:	00978023          	sb	s1,0(a5)
    1e5c:	00878023          	sb	s0,0(a5)
    1e60:	00778023          	sb	t2,0(a5)
    1e64:	00578023          	sb	t0,0(a5)
    1e68:	01f78023          	sb	t6,0(a5)
    1e6c:	01e78023          	sb	t5,0(a5)
    1e70:	01d78023          	sb	t4,0(a5)
    1e74:	01c78023          	sb	t3,0(a5)
    1e78:	00678023          	sb	t1,0(a5)
    1e7c:	01178023          	sb	a7,0(a5)
    1e80:	01078023          	sb	a6,0(a5)
    1e84:	00a78023          	sb	a0,0(a5)
    1e88:	00b78023          	sb	a1,0(a5)
    1e8c:	00c78023          	sb	a2,0(a5)
    1e90:	00d78023          	sb	a3,0(a5)
    1e94:	00e78023          	sb	a4,0(a5)
    1e98:	00978023          	sb	s1,0(a5)
    1e9c:	00878023          	sb	s0,0(a5)
    1ea0:	00778023          	sb	t2,0(a5)
    1ea4:	00578023          	sb	t0,0(a5)
    1ea8:	01f78023          	sb	t6,0(a5)
    1eac:	01e78023          	sb	t5,0(a5)
    1eb0:	01d78023          	sb	t4,0(a5)
    1eb4:	01c78023          	sb	t3,0(a5)
    1eb8:	00678023          	sb	t1,0(a5)
    1ebc:	01178023          	sb	a7,0(a5)
    1ec0:	01078023          	sb	a6,0(a5)
    1ec4:	00a78023          	sb	a0,0(a5)
    1ec8:	00b78023          	sb	a1,0(a5)
    1ecc:	00c78023          	sb	a2,0(a5)
    1ed0:	00d78023          	sb	a3,0(a5)
    1ed4:	00e78023          	sb	a4,0(a5)
    1ed8:	00978023          	sb	s1,0(a5)
    1edc:	00878023          	sb	s0,0(a5)
    1ee0:	00778023          	sb	t2,0(a5)
    1ee4:	00578023          	sb	t0,0(a5)
    1ee8:	01f78023          	sb	t6,0(a5)
    1eec:	01e78023          	sb	t5,0(a5)
    1ef0:	01d78023          	sb	t4,0(a5)
    1ef4:	01c78023          	sb	t3,0(a5)
    1ef8:	00678023          	sb	t1,0(a5)
    1efc:	01178023          	sb	a7,0(a5)
    1f00:	01078023          	sb	a6,0(a5)
    1f04:	00a78023          	sb	a0,0(a5)
    1f08:	00b78023          	sb	a1,0(a5)
    1f0c:	00c78023          	sb	a2,0(a5)
    1f10:	00d78023          	sb	a3,0(a5)
    1f14:	00e78023          	sb	a4,0(a5)
    1f18:	000306b7          	lui	a3,0x30
    1f1c:	06300893          	li	a7,99
    1f20:	01168023          	sb	a7,0(a3) # 30000 <__heap_start+0x2d000>
    1f24:	06400813          	li	a6,100
    1f28:	01068023          	sb	a6,0(a3)
    1f2c:	06500513          	li	a0,101
    1f30:	00a68023          	sb	a0,0(a3)
    1f34:	06600593          	li	a1,102
    1f38:	00b68023          	sb	a1,0(a3)
    1f3c:	06700613          	li	a2,103
    1f40:	00c68023          	sb	a2,0(a3)
    1f44:	06800713          	li	a4,104
    1f48:	00e68023          	sb	a4,0(a3)
    1f4c:	06900793          	li	a5,105
    1f50:	00f68023          	sb	a5,0(a3)
    1f54:	06a00493          	li	s1,106
    1f58:	06b00413          	li	s0,107
    1f5c:	00968023          	sb	s1,0(a3)
    1f60:	06c00393          	li	t2,108
    1f64:	00868023          	sb	s0,0(a3)
    1f68:	06d00293          	li	t0,109
    1f6c:	00768023          	sb	t2,0(a3)
    1f70:	00568023          	sb	t0,0(a3)
    1f74:	06e00f93          	li	t6,110
    1f78:	01f68023          	sb	t6,0(a3)
    1f7c:	06f00f13          	li	t5,111
    1f80:	01e68023          	sb	t5,0(a3)
    1f84:	07000e93          	li	t4,112
    1f88:	01d68023          	sb	t4,0(a3)
    1f8c:	06100e13          	li	t3,97
    1f90:	01c68023          	sb	t3,0(a3)
    1f94:	06200313          	li	t1,98
    1f98:	00668023          	sb	t1,0(a3)
    1f9c:	01168023          	sb	a7,0(a3)
    1fa0:	01068023          	sb	a6,0(a3)
    1fa4:	00a68023          	sb	a0,0(a3)
    1fa8:	00b68023          	sb	a1,0(a3)
    1fac:	00c68023          	sb	a2,0(a3)
    1fb0:	00e68023          	sb	a4,0(a3)
    1fb4:	00f68023          	sb	a5,0(a3)
    1fb8:	00968023          	sb	s1,0(a3)
    1fbc:	00868023          	sb	s0,0(a3)
    1fc0:	00768023          	sb	t2,0(a3)
    1fc4:	00568023          	sb	t0,0(a3)
    1fc8:	01f68023          	sb	t6,0(a3)
    1fcc:	01e68023          	sb	t5,0(a3)
    1fd0:	01d68023          	sb	t4,0(a3)
    1fd4:	01c68023          	sb	t3,0(a3)
    1fd8:	00668023          	sb	t1,0(a3)
    1fdc:	01168023          	sb	a7,0(a3)
    1fe0:	01068023          	sb	a6,0(a3)
    1fe4:	00a68023          	sb	a0,0(a3)
    1fe8:	00b68023          	sb	a1,0(a3)
    1fec:	00c68023          	sb	a2,0(a3)
    1ff0:	00e68023          	sb	a4,0(a3)
    1ff4:	00f68023          	sb	a5,0(a3)
    1ff8:	00968023          	sb	s1,0(a3)
    1ffc:	00868023          	sb	s0,0(a3)
    2000:	00768023          	sb	t2,0(a3)
    2004:	00568023          	sb	t0,0(a3)
    2008:	01f68023          	sb	t6,0(a3)
    200c:	01e68023          	sb	t5,0(a3)
    2010:	01d68023          	sb	t4,0(a3)
    2014:	01c68023          	sb	t3,0(a3)
    2018:	00668023          	sb	t1,0(a3)
    201c:	01168023          	sb	a7,0(a3)
    2020:	01068023          	sb	a6,0(a3)
    2024:	00a68023          	sb	a0,0(a3)
    2028:	00b68023          	sb	a1,0(a3)
    202c:	00c68023          	sb	a2,0(a3)
    2030:	00e68023          	sb	a4,0(a3)
    2034:	00f68023          	sb	a5,0(a3)
    2038:	06a00813          	li	a6,106
    203c:	000307b7          	lui	a5,0x30
    2040:	01078023          	sb	a6,0(a5) # 30000 <__heap_start+0x2d000>
    2044:	06b00513          	li	a0,107
    2048:	00a78023          	sb	a0,0(a5)
    204c:	06c00593          	li	a1,108
    2050:	00b78023          	sb	a1,0(a5)
    2054:	06d00613          	li	a2,109
    2058:	00c78023          	sb	a2,0(a5)
    205c:	06e00693          	li	a3,110
    2060:	00d78023          	sb	a3,0(a5)
    2064:	06f00713          	li	a4,111
    2068:	00e78023          	sb	a4,0(a5)
    206c:	07000893          	li	a7,112
    2070:	01178023          	sb	a7,0(a5)
    2074:	06100893          	li	a7,97
    2078:	01178023          	sb	a7,0(a5)
    207c:	06200893          	li	a7,98
    2080:	01178023          	sb	a7,0(a5)
    2084:	06300893          	li	a7,99
    2088:	01178023          	sb	a7,0(a5)
    208c:	06400893          	li	a7,100
    2090:	01178023          	sb	a7,0(a5)
    2094:	06500893          	li	a7,101
    2098:	01178023          	sb	a7,0(a5)
    209c:	06600893          	li	a7,102
    20a0:	01178023          	sb	a7,0(a5)
    20a4:	06700893          	li	a7,103
    20a8:	01178023          	sb	a7,0(a5)
    20ac:	06800893          	li	a7,104
    20b0:	01178023          	sb	a7,0(a5)
    20b4:	06900893          	li	a7,105
    20b8:	01178023          	sb	a7,0(a5)
    20bc:	01078023          	sb	a6,0(a5)
    20c0:	00a78023          	sb	a0,0(a5)
    20c4:	00b78023          	sb	a1,0(a5)
    20c8:	00c78023          	sb	a2,0(a5)
    20cc:	00d78023          	sb	a3,0(a5)
    20d0:	00e78023          	sb	a4,0(a5)
    20d4:	00c12403          	lw	s0,12(sp)
    20d8:	00812483          	lw	s1,8(sp)
    20dc:	00000513          	li	a0,0
    20e0:	01010113          	addi	sp,sp,16
    20e4:	00008067          	ret
